target datalayout = "e-m:e-p270:32:32-p271:32:32-p272:64:64-i64:64-i128:128-f80:128-n8:16:32:64-S128"
target triple = "x86_64-unknown-linux-gnu"

; Function Attrs: nounwind uwtable
define i32 @stb_easy_font_height(ptr noundef %text) #0 {
entry:
  %text.addr = alloca ptr, align 8
  %y = alloca float, align 4
  %nonempty_line = alloca i32, align 4
  store ptr %text, ptr %text.addr, align 8
  store float 0.000000e+00, ptr %y, align 4
  store i32 0, ptr %nonempty_line, align 4
  br label %while.cond

while.cond:                                       ; preds = %if.end, %entry
  %0 = load ptr, ptr %text.addr, align 8
  %1 = load i8, ptr %0, align 1
  %tobool = icmp ne i8 %1, 0
  br i1 %tobool, label %while.body, label %while.end

while.body:                                       ; preds = %while.cond
  %2 = load ptr, ptr %text.addr, align 8
  %3 = load i8, ptr %2, align 1
  %conv = sext i8 %3 to i32
  %cmp = icmp eq i32 %conv, 10
  br i1 %cmp, label %if.then, label %if.else

if.then:                                          ; preds = %while.body
  %4 = load float, ptr %y, align 4
  %add = fadd float %4, 1.200000e+01
  store float %add, ptr %y, align 4
  store i32 0, ptr %nonempty_line, align 4
  br label %if.end

if.else:                                          ; preds = %while.body
  store i32 1, ptr %nonempty_line, align 4
  br label %if.end

if.end:                                           ; preds = %if.else, %if.then
  %5 = load ptr, ptr %text.addr, align 8
  %incdec.ptr = getelementptr inbounds i8, ptr %5, i32 1
  store ptr %incdec.ptr, ptr %text.addr, align 8
  br label %while.cond, !llvm.loop !9

while.end:                                        ; preds = %while.cond
  %6 = load float, ptr %y, align 4
  %7 = load i32, ptr %nonempty_line, align 4
  %tobool2 = icmp ne i32 %7, 0
  %cond = select i1 %tobool2, i32 12, i32 0
  %conv3 = sitofp i32 %cond to float
  %add4 = fadd float %6, %conv3
  %conv5 = fpext float %add4 to double
  %8 = call double @llvm.ceil.f64(double %conv5)
  %conv6 = fptosi double %8 to i32
  ret i32 %conv6
}