; Function Attrs: nofree norecurse nosync nounwind memory(argmem: read) uwtable
define i32 @stb_easy_font_height(ptr noundef readonly captures(none) %text) local_unnamed_addr #4 {
entry:
  br label %while.cond

while.cond:                                       ; preds = %if.end, %entry
  %text.addr.0 = phi ptr [ %text, %entry ], [ %incdec.ptr, %if.end ]
  %y.0 = phi float [ 0.000000e+00, %entry ], [ %y.1, %if.end ]
  %nonempty_line.0 = phi i32 [ 0, %entry ], [ %nonempty_line.1, %if.end ]
  %0 = load i8, ptr %text.addr.0, align 1
  switch i8 %0, label %if.end [
    i8 0, label %while.end
    i8 10, label %if.then
  ]

if.then:                                          ; preds = %while.cond
  %add = fadd float %y.0, 1.200000e+01
  br label %if.end

if.end:                                           ; preds = %while.cond, %if.then
  %y.1 = phi float [ %add, %if.then ], [ %y.0, %while.cond ]
  %nonempty_line.1 = phi i32 [ 0, %if.then ], [ 1, %while.cond ]
  %incdec.ptr = getelementptr inbounds nuw i8, ptr %text.addr.0, i64 1
  br label %while.cond, !llvm.loop !9

while.end:                                        ; preds = %while.cond
  %tobool2.not = icmp eq i32 %nonempty_line.0, 0
  %cond = select i1 %tobool2.not, i32 0, i32 12
  %conv3 = uitofp nneg i32 %cond to float
  %add4 = fadd float %y.0, %conv3
  %1 = tail call float @llvm.ceil.f32(float %add4)
  %conv6 = fptosi float %1 to i32
  ret i32 %conv6
}